; ModuleID = 'bench/linux/original/mount.ll'
source_filename = "bench/linux/original/mount.ll"
target datalayout = "e-m:e-p270:32:32-p271:32:32-p272:64:64-i64:64-i128:128-f80:128-n8:16:32:64-S128"
target triple = "x86_64-unknown-linux-gnu"

%struct.file_system_type = type { ptr, i32, ptr, ptr, ptr, ptr, ptr, ptr, %struct.hlist_head, %struct.lock_class_key, %struct.lock_class_key, %struct.lock_class_key, [3 x %struct.lock_class_key], %struct.lock_class_key, %struct.lock_class_key, %struct.lock_class_key, %struct.lock_class_key }
%struct.hlist_head = type { ptr }
%struct.lock_class_key = type {}
%struct.fs_context_operations = type { ptr, ptr, ptr, ptr, ptr, ptr }
%struct.user_namespace = type { %struct.uid_gid_map, %struct.uid_gid_map, %struct.uid_gid_map, ptr, i32, %struct.kuid_t, %struct.kgid_t, %struct.ns_common, i64, i8, %struct.list_head, ptr, %struct.rw_semaphore, %struct.work_struct, %struct.ctl_table_set, ptr, ptr, [10 x i64], [4 x i64], ptr }
%struct.uid_gid_map = type { i32, %union.anon.13 }
%union.anon.13 = type { %struct.anon.14, [48 x i8] }
%struct.anon.14 = type { ptr, ptr }
%struct.kuid_t = type { i32 }
%struct.kgid_t = type { i32 }
%struct.ns_common = type { %struct.atomic64_t, ptr, i32, %struct.refcount_struct }
%struct.atomic64_t = type { i64 }
%struct.refcount_struct = type { %struct.atomic_t }
%struct.atomic_t = type { i32 }
%struct.list_head = type { ptr, ptr }
%struct.rw_semaphore = type { %struct.atomic64_t, %struct.atomic64_t, %struct.optimistic_spin_queue, %struct.raw_spinlock, %struct.list_head }
%struct.optimistic_spin_queue = type { %struct.atomic_t }
%struct.raw_spinlock = type { %struct.qspinlock }
%struct.qspinlock = type { %union.anon }
%union.anon = type { %struct.atomic_t }
%struct.work_struct = type { %struct.atomic64_t, %struct.list_head, ptr }
%struct.ctl_table_set = type { ptr, %struct.ctl_dir }
%struct.ctl_dir = type { %struct.ctl_table_header, %struct.rb_root }
%struct.ctl_table_header = type { %union.anon.2, ptr, ptr, ptr, ptr, ptr, ptr, %struct.hlist_head }
%union.anon.2 = type { %struct.anon.3 }
%struct.anon.3 = type { ptr, i32, i32, i32, i32 }
%struct.rb_root = type { ptr }

@sysfs_root = internal unnamed_addr global ptr null, align 8
@sysfs_root_kn = dso_local local_unnamed_addr global ptr null, align 8
@sysfs_fs_type = internal global %struct.file_system_type { ptr @.str, i32 8, ptr @sysfs_init_fs_context, ptr null, ptr null, ptr @sysfs_kill_sb, ptr null, ptr null, %struct.hlist_head zeroinitializer, %struct.lock_class_key zeroinitializer, %struct.lock_class_key zeroinitializer, %struct.lock_class_key zeroinitializer, [3 x %struct.lock_class_key] zeroinitializer, %struct.lock_class_key zeroinitializer, %struct.lock_class_key zeroinitializer, %struct.lock_class_key zeroinitializer, %struct.lock_class_key zeroinitializer }, align 8
@.str = private unnamed_addr constant [6 x i8] c"sysfs\00", align 1
@sysfs_fs_context_ops = internal constant %struct.fs_context_operations { ptr @sysfs_fs_context_free, ptr null, ptr null, ptr null, ptr @sysfs_get_tree, ptr null }, align 8
@kmalloc_caches = external dso_local local_unnamed_addr global [3 x [14 x ptr]], align 16
@init_user_ns = external dso_local global %struct.user_namespace, align 8

; Function Attrs: cold fn_ret_thunk_extern nounwind null_pointer_is_valid optsize
define dso_local i32 @sysfs_init() local_unnamed_addr #0 section ".init.text" align 16 {
  %1 = tail call ptr @kernfs_create_root(ptr noundef null, i32 noundef 2, ptr noundef null) #4
  store ptr %1, ptr @sysfs_root, align 8
  %2 = icmp ugt ptr %1, inttoptr (i64 -4096 to ptr)
  br i1 %2, label %3, label %6

3:                                                ; preds = %0
  %4 = ptrtoint ptr %1 to i64
  %5 = trunc i64 %4 to i32
  br label %12

6:                                                ; preds = %0
  %7 = tail call ptr @kernfs_root_to_node(ptr noundef %1) #4
  store ptr %7, ptr @sysfs_root_kn, align 8
  %8 = tail call i32 @register_filesystem(ptr noundef nonnull @sysfs_fs_type) #4
  %9 = icmp eq i32 %8, 0
  br i1 %9, label %12, label %10

10:                                               ; preds = %6
  %11 = load ptr, ptr @sysfs_root, align 8
  tail call void @kernfs_destroy_root(ptr noundef %11) #4
  br label %12

12:                                               ; preds = %10, %6, %3
  %13 = phi i32 [ %5, %3 ], [ %8, %10 ], [ 0, %6 ]
  ret i32 %13
}

; Function Attrs: null_pointer_is_valid
declare dso_local ptr @kernfs_create_root(ptr noundef, i32 noundef, ptr noundef) local_unnamed_addr #1

; Function Attrs: null_pointer_is_valid
declare dso_local ptr @kernfs_root_to_node(ptr noundef) local_unnamed_addr #1

; Function Attrs: null_pointer_is_valid
declare dso_local i32 @register_filesystem(ptr noundef) local_unnamed_addr #1

; Function Attrs: null_pointer_is_valid
declare dso_local void @kernfs_destroy_root(ptr noundef) local_unnamed_addr #1

; Function Attrs: fn_ret_thunk_extern nounwind null_pointer_is_valid
define internal noundef i32 @sysfs_init_fs_context(ptr nocapture noundef %0) #2 align 16 {
  %2 = getelementptr inbounds i8, ptr %0, i64 136
  %3 = load i32, ptr %2, align 8
  %4 = and i32 %3, 4194304
  %5 = icmp eq i32 %4, 0
  br i1 %5, label %6, label %8

6:                                                ; preds = %1
  %7 = tail call zeroext i1 @kobj_ns_current_may_mount(i32 noundef 1) #4
  br i1 %7, label %8, label %25

8:                                                ; preds = %6, %1
  %9 = load ptr, ptr getelementptr inbounds ([3 x [14 x ptr]], ptr @kmalloc_caches, i64 0, i64 0, i64 5), align 8
  %10 = tail call noalias noundef align 8 dereferenceable_or_null(32) ptr @kmalloc_trace(ptr noundef %9, i32 noundef 3520, i64 noundef 32) #5
  %11 = icmp eq ptr %10, null
  br i1 %11, label %25, label %12

12:                                               ; preds = %8
  %13 = tail call ptr @kobj_ns_grab_current(i32 noundef 1) #4
  %14 = getelementptr inbounds i8, ptr %10, i64 8
  store ptr %13, ptr %14, align 8
  %15 = load ptr, ptr @sysfs_root, align 8
  store ptr %15, ptr %10, align 8
  %16 = getelementptr inbounds i8, ptr %10, i64 16
  store i64 1650812274, ptr %16, align 8
  %17 = getelementptr inbounds i8, ptr %0, i64 48
  store ptr %10, ptr %17, align 8
  store ptr @sysfs_fs_context_ops, ptr %0, align 8
  %18 = icmp eq ptr %13, null
  br i1 %18, label %21, label %19

19:                                               ; preds = %12
  %20 = getelementptr inbounds i8, ptr %0, i64 72
  store ptr @init_user_ns, ptr %20, align 8
  br label %21

21:                                               ; preds = %19, %12
  %22 = getelementptr inbounds i8, ptr %0, i64 148
  %23 = load i32, ptr %22, align 4
  %24 = or i32 %23, 131072
  store i32 %24, ptr %22, align 4
  br label %25

25:                                               ; preds = %21, %8, %6
  %26 = phi i32 [ 0, %21 ], [ -1, %6 ], [ -12, %8 ]
  ret i32 %26
}

; Function Attrs: fn_ret_thunk_extern nounwind null_pointer_is_valid
define internal void @sysfs_kill_sb(ptr noundef %0) #2 align 16 {
  %2 = tail call ptr @kernfs_super_ns(ptr noundef %0) #4
  tail call void @kernfs_kill_sb(ptr noundef %0) #4
  tail call void @kobj_ns_drop(i32 noundef 1, ptr noundef %2) #4
  ret void
}

; Function Attrs: null_pointer_is_valid
declare dso_local zeroext i1 @kobj_ns_current_may_mount(i32 noundef) local_unnamed_addr #1

; Function Attrs: null_pointer_is_valid
declare dso_local ptr @kobj_ns_grab_current(i32 noundef) local_unnamed_addr #1

; Function Attrs: null_pointer_is_valid allocsize(2)
declare dso_local noalias ptr @kmalloc_trace(ptr noundef, i32 noundef, i64 noundef) local_unnamed_addr #3

; Function Attrs: fn_ret_thunk_extern nounwind null_pointer_is_valid
define internal void @sysfs_fs_context_free(ptr noundef %0) #2 align 16 {
  %2 = getelementptr inbounds i8, ptr %0, i64 48
  %3 = load ptr, ptr %2, align 8
  %4 = getelementptr inbounds i8, ptr %3, i64 8
  %5 = load ptr, ptr %4, align 8
  %6 = icmp eq ptr %5, null
  br i1 %6, label %8, label %7

7:                                                ; preds = %1
  tail call void @kobj_ns_drop(i32 noundef 1, ptr noundef nonnull %5) #4
  br label %8

8:                                                ; preds = %7, %1
  tail call void @kernfs_free_fs_context(ptr noundef %0) #4
  tail call void @kfree(ptr noundef %3) #4
  ret void
}

; Function Attrs: fn_ret_thunk_extern nounwind null_pointer_is_valid
define internal i32 @sysfs_get_tree(ptr noundef %0) #2 align 16 {
  %2 = getelementptr inbounds i8, ptr %0, i64 48
  %3 = load ptr, ptr %2, align 8
  %4 = tail call i32 @kernfs_get_tree(ptr noundef %0) #4
  %5 = icmp eq i32 %4, 0
  br i1 %5, label %6, label %18

6:                                                ; preds = %1
  %7 = getelementptr inbounds i8, ptr %3, i64 24
  %8 = load i8, ptr %7, align 8, !range !5, !noundef !6
  %9 = icmp eq i8 %8, 0
  br i1 %9, label %18, label %10

10:                                               ; preds = %6
  %11 = getelementptr inbounds i8, ptr %0, i64 64
  %12 = load ptr, ptr %11, align 8
  %13 = getelementptr inbounds i8, ptr %12, i64 112
  %14 = load ptr, ptr %13, align 8
  %15 = getelementptr inbounds i8, ptr %14, i64 88
  %16 = load i64, ptr %15, align 8
  %17 = or i64 %16, 16
  store i64 %17, ptr %15, align 8
  br label %18

18:                                               ; preds = %10, %6, %1
  ret i32 %4
}

; Function Attrs: null_pointer_is_valid
declare dso_local void @kobj_ns_drop(i32 noundef, ptr noundef) local_unnamed_addr #1

; Function Attrs: null_pointer_is_valid
declare dso_local void @kernfs_free_fs_context(ptr noundef) local_unnamed_addr #1

; Function Attrs: null_pointer_is_valid
declare dso_local void @kfree(ptr noundef) local_unnamed_addr #1

; Function Attrs: null_pointer_is_valid
declare dso_local i32 @kernfs_get_tree(ptr noundef) local_unnamed_addr #1

; Function Attrs: null_pointer_is_valid
declare dso_local ptr @kernfs_super_ns(ptr noundef) local_unnamed_addr #1

; Function Attrs: null_pointer_is_valid
declare dso_local void @kernfs_kill_sb(ptr noundef) local_unnamed_addr #1


!llvm.module.flags = !{!0, !1, !2, !3, !4}

!0 = !{i32 1, !"wchar_size", i32 2}
!1 = !{i32 8, !"cf-protection-branch", i32 1}
!2 = !{i32 4, !"function_return_thunk_extern", i32 1}
!3 = !{i32 4, !"indirect_branch_cs_prefix", i32 1}
!4 = !{i32 4, !"SkipRaxSetup", i32 1}
!5 = !{i8 0, i8 2}
!6 = !{}
